; Function Attrs: inlinehint mustprogress optsize uwtable
define internal noundef ptr @"_ZZN8nanobind6detail11func_createILb0ELb1EZL32nanobind_init_test_functions_extRNS_7module_EE4$_15NS_5tupleEJETpTnmJEJNS_5scopeENS_4nameEEEEP7_objectOT1_PFT2_DpT3_ESt16integer_sequenceImJXspT4_EEEDpRKT5_ENUlPvPS9_PhNS_9rv_policyEPNS0_12cleanup_listEE_8__invokeESN_SO_SP_SQ_SS_"(ptr readnone captures(none) %0, ptr readnone captures(none) %1, ptr readnone captures(none) %2, i32 %3, ptr readnone captures(none) %4) #15 align 2 personality ptr @__gxx_personality_v0 {
  %6 = alloca i32, align 4
  %7 = alloca %"class.nanobind::tuple", align 8
  call void @llvm.lifetime.start.p0(i64 8, ptr nonnull %7) #27
  call void @llvm.lifetime.start.p0(i64 4, ptr nonnull %6) #27, !noalias !186
  store i32 123, ptr %6, align 4, !tbaa !36, !noalias !186
  call void @_ZN8nanobind10make_tupleILNS_9rv_policyE0EJRA6_KciEEENS_5tupleEDpOT0_(ptr dead_on_unwind nonnull writable sret(%"class.nanobind::tuple") align 8 %7, ptr noundef nonnull align 1 dereferenceable(6) @.str.126, ptr noundef nonnull align 4 dereferenceable(4) %6) #28
  call void @llvm.lifetime.end.p0(i64 4, ptr nonnull %6) #27, !noalias !186
  %8 = load ptr, ptr %7, align 8, !tbaa !44
  store ptr null, ptr %7, align 8, !tbaa !44
  %9 = call noundef nonnull align 8 dereferenceable(8) ptr @_ZNKR8nanobind6handle7dec_refEv(ptr noundef nonnull align 8 dereferenceable(8) %7) #31
  call void @llvm.lifetime.end.p0(i64 8, ptr nonnull %7) #27
  ret ptr %8
}